; Function Attrs: mustprogress uwtable
define hidden noundef zeroext i1 @_ZN4cvc58internal6theory2bv5utils13isBvConstTermENS0_12NodeTemplateILb0EEE(ptr noundef %0) local_unnamed_addr #3 personality ptr @__gxx_personality_v0 {
  %2 = alloca %"class.cvc5::internal::NodeTemplate", align 8
  %3 = load ptr, ptr %0, align 8, !tbaa !10
  %4 = getelementptr inbounds nuw i8, ptr %3, i64 8
  %5 = load i64, ptr %4, align 8
  %6 = trunc i64 %5 to i32
  %7 = and i32 %6, 1023
  %8 = icmp eq i32 %7, 1023
  %9 = select i1 %8, i32 -1, i32 %7
  %10 = tail call noundef i32 @_ZN4cvc58internal4kind10metaKindOfENS1_6Kind_tE(i32 noundef %9)
  %11 = icmp eq i32 %10, 2
  %12 = load i64, ptr %4, align 8
  %13 = lshr i64 %12, 32
  %14 = and i64 %13, 67108863
  %15 = sext i1 %11 to i64
  %16 = add nsw i64 %14, %15
  %17 = and i64 %16, 4294967295
  %18 = icmp eq i64 %17, 0
  br i1 %18, label %19, label %21

19:                                               ; preds = %1
  %20 = tail call noundef zeroext i1 @_ZNK4cvc58internal12NodeTemplateILb0EE7isConstEv(ptr noundef nonnull align 8 dereferenceable(8) %0)
  br label %.loopexit

21:                                               ; preds = %1
  %22 = load ptr, ptr %0, align 8, !tbaa !10
  %23 = getelementptr inbounds nuw i8, ptr %22, i64 8
  %24 = load i64, ptr %23, align 8
  %25 = trunc i64 %24 to i32
  %26 = and i32 %25, 1023
  %27 = icmp eq i32 %26, 1023
  %28 = select i1 %27, i32 -1, i32 %26
  %29 = tail call noundef i32 @_ZN4cvc58internal4kind10metaKindOfENS1_6Kind_tE(i32 noundef %28)
  %30 = icmp eq i32 %29, 2
  %spec.select.v.i.i = select i1 %30, i64 32, i64 24
  %spec.select.i.i = getelementptr inbounds nuw i8, ptr %22, i64 %spec.select.v.i.i
  %31 = load ptr, ptr %0, align 8, !tbaa !10
  %32 = getelementptr inbounds nuw i8, ptr %31, i64 24
  %33 = getelementptr inbounds nuw i8, ptr %31, i64 8
  %34 = load i64, ptr %33, align 8
  %35 = lshr i64 %34, 32
  %36 = and i64 %35, 67108863
  %37 = getelementptr inbounds nuw ptr, ptr %32, i64 %36
  %.not12 = icmp eq ptr %spec.select.i.i, %37
  br i1 %.not12, label %.loopexit, label %.lr.ph

.lr.ph:                                           ; preds = %21, %.lr.ph
  %.sroa.09.013 = phi ptr [ %40, %.lr.ph ], [ %spec.select.i.i, %21 ]
  call void @llvm.lifetime.start.p0(i64 8, ptr nonnull %2) #22
  call void @llvm.experimental.noalias.scope.decl(metadata !58)
  %38 = load ptr, ptr %.sroa.09.013, align 8, !tbaa !13, !noalias !58
  store ptr %38, ptr %2, align 8, !tbaa !10, !alias.scope !58
  %39 = call noundef zeroext i1 @_ZNK4cvc58internal12NodeTemplateILb0EE7isConstEv(ptr noundef nonnull align 8 dereferenceable(8) %2)
  call void @llvm.lifetime.end.p0(i64 8, ptr nonnull %2) #22
  %40 = getelementptr inbounds nuw i8, ptr %.sroa.09.013, i64 8
  %.not = icmp ne ptr %40, %37
  %or.cond.not = select i1 %39, i1 %.not, i1 false
  br i1 %or.cond.not, label %.lr.ph, label %.loopexit

.loopexit:                                        ; preds = %.lr.ph, %21, %19
  %.0 = phi i1 [ %20, %19 ], [ true, %21 ], [ %39, %.lr.ph ]
  ret i1 %.0
}